; Function Attrs: mustprogress nofree norecurse nosync nounwind willreturn memory(argmem: read) uwtable
define noundef zeroext i1 @_ZN3vcg17NavigatorWasdMode11IsAnimatingEPKNS_9TrackballE(ptr nocapture noundef nonnull readonly align 8 dereferenceable(80) %0, ptr nocapture noundef readonly %1) unnamed_addr #10 align 2 {
  %3 = getelementptr inbounds i8, ptr %1, i64 324
  %4 = load i32, ptr %3, align 4
  %.not = icmp ult i32 %4, 256
  br i1 %.not, label %5, label %_ZNK3vcg6Point3IfEneERKS1_.exit.thread

5:                                                ; preds = %2
  %6 = getelementptr inbounds i8, ptr %0, i64 16
  %7 = load float, ptr %6, align 8
  %8 = fcmp une float %7, 0.000000e+00
  %9 = getelementptr inbounds i8, ptr %0, i64 20
  %10 = load float, ptr %9, align 4
  %11 = fcmp une float %10, 0.000000e+00
  %or.cond = select i1 %8, i1 true, i1 %11
  %12 = getelementptr inbounds i8, ptr %0, i64 24
  %13 = load float, ptr %12, align 8
  %14 = fcmp une float %13, 0.000000e+00
  %or.cond7 = select i1 %or.cond, i1 true, i1 %14
  br i1 %or.cond7, label %_ZNK3vcg6Point3IfEneERKS1_.exit.thread, label %15

15:                                               ; preds = %5
  %16 = getelementptr inbounds i8, ptr %0, i64 28
  %17 = load float, ptr %16, align 4
  %18 = fcmp ogt float %17, 0.000000e+00
  br label %_ZNK3vcg6Point3IfEneERKS1_.exit.thread

_ZNK3vcg6Point3IfEneERKS1_.exit.thread:           ; preds = %5, %15, %2
  %.0 = phi i1 [ true, %2 ], [ %18, %15 ], [ true, %5 ]
  ret i1 %.0
}